target datalayout = "e-m:e-p270:32:32-p271:32:32-p272:64:64-i64:64-i128:128-f80:128-n8:16:32:64-S128"
target triple = "x86_64-pc-linux-gnu"

@_ZZ11stbi__crc32PhiE9crc_table = internal global [256 x i32] zeroinitializer, align 16

; Function Attrs: mustprogress nounwind uwtable
define hidden noundef i32 @_Z11stbi__crc32Phi(ptr noundef %0, i32 noundef %1) #5 {
  %3 = alloca ptr, align 8
  %4 = alloca i32, align 4
  %5 = alloca i32, align 4
  %6 = alloca i32, align 4
  %7 = alloca i32, align 4
  store ptr %0, ptr %3, align 8
  store i32 %1, ptr %4, align 4
  store i32 -1, ptr %5, align 4
  %8 = load i32, ptr getelementptr inbounds ([256 x i32], ptr @_ZZ11stbi__crc32PhiE9crc_table, i64 0, i64 1), align 4
  %9 = icmp eq i32 %8, 0
  br i1 %9, label %10, label %47

10:                                               ; preds = %2
  store i32 0, ptr %6, align 4
  br label %11

11:                                               ; preds = %43, %10
  %12 = load i32, ptr %6, align 4
  %13 = icmp slt i32 %12, 256
  br i1 %13, label %14, label %46

14:                                               ; preds = %11
  %15 = load i32, ptr %6, align 4
  %16 = load i32, ptr %6, align 4
  %17 = sext i32 %16 to i64
  %18 = getelementptr inbounds [256 x i32], ptr @_ZZ11stbi__crc32PhiE9crc_table, i64 0, i64 %17
  store i32 %15, ptr %18, align 4
  store i32 0, ptr %7, align 4
  br label %19

19:                                               ; preds = %39, %14
  %20 = load i32, ptr %7, align 4
  %21 = icmp slt i32 %20, 8
  br i1 %21, label %22, label %42

22:                                               ; preds = %19
  %23 = load i32, ptr %6, align 4
  %24 = sext i32 %23 to i64
  %25 = getelementptr inbounds [256 x i32], ptr @_ZZ11stbi__crc32PhiE9crc_table, i64 0, i64 %24
  %26 = load i32, ptr %25, align 4
  %27 = lshr i32 %26, 1
  %28 = load i32, ptr %6, align 4
  %29 = sext i32 %28 to i64
  %30 = getelementptr inbounds [256 x i32], ptr @_ZZ11stbi__crc32PhiE9crc_table, i64 0, i64 %29
  %31 = load i32, ptr %30, align 4
  %32 = and i32 %31, 1
  %33 = icmp ne i32 %32, 0
  %34 = select i1 %33, i32 -306674912, i32 0
  %35 = xor i32 %27, %34
  %36 = load i32, ptr %6, align 4
  %37 = sext i32 %36 to i64
  %38 = getelementptr inbounds [256 x i32], ptr @_ZZ11stbi__crc32PhiE9crc_table, i64 0, i64 %37
  store i32 %35, ptr %38, align 4
  br label %39

39:                                               ; preds = %22
  %40 = load i32, ptr %7, align 4
  %41 = add nsw i32 %40, 1
  store i32 %41, ptr %7, align 4
  br label %19, !llvm.loop !20

42:                                               ; preds = %19
  br label %43

43:                                               ; preds = %42
  %44 = load i32, ptr %6, align 4
  %45 = add nsw i32 %44, 1
  store i32 %45, ptr %6, align 4
  br label %11, !llvm.loop !21

46:                                               ; preds = %11
  br label %47

47:                                               ; preds = %46, %2
  store i32 0, ptr %6, align 4
  br label %48

48:                                               ; preds = %68, %47
  %49 = load i32, ptr %6, align 4
  %50 = load i32, ptr %4, align 4
  %51 = icmp slt i32 %49, %50
  br i1 %51, label %52, label %71

52:                                               ; preds = %48
  %53 = load i32, ptr %5, align 4
  %54 = lshr i32 %53, 8
  %55 = load ptr, ptr %3, align 8
  %56 = load i32, ptr %6, align 4
  %57 = sext i32 %56 to i64
  %58 = getelementptr inbounds i8, ptr %55, i64 %57
  %59 = load i8, ptr %58, align 1
  %60 = zext i8 %59 to i32
  %61 = load i32, ptr %5, align 4
  %62 = and i32 %61, 255
  %63 = xor i32 %60, %62
  %64 = zext i32 %63 to i64
  %65 = getelementptr inbounds [256 x i32], ptr @_ZZ11stbi__crc32PhiE9crc_table, i64 0, i64 %64
  %66 = load i32, ptr %65, align 4
  %67 = xor i32 %54, %66
  store i32 %67, ptr %5, align 4
  br label %68

68:                                               ; preds = %52
  %69 = load i32, ptr %6, align 4
  %70 = add nsw i32 %69, 1
  store i32 %70, ptr %6, align 4
  br label %48, !llvm.loop !22

71:                                               ; preds = %48
  %72 = load i32, ptr %5, align 4
  %73 = xor i32 %72, -1
  ret i32 %73
}