; Function Attrs: mustprogress nofree norecurse nosync nounwind memory(readwrite, argmem: read, inaccessiblemem: none) uwtable
define hidden noundef i32 @_Z11stbi__crc32Phi(ptr nocapture noundef readonly %0, i32 noundef %1) local_unnamed_addr #7 {
  %3 = load i32, ptr getelementptr inbounds ([256 x i32], ptr @_ZZ11stbi__crc32PhiE9crc_table, i64 0, i64 1), align 4
  %4 = icmp eq i32 %3, 0
  br i1 %4, label %.preheader, label %.loopexit

.preheader:                                       ; preds = %2, %14
  %indvars.iv = phi i64 [ %indvars.iv.next, %14 ], [ 0, %2 ]
  %5 = getelementptr inbounds [256 x i32], ptr @_ZZ11stbi__crc32PhiE9crc_table, i64 0, i64 %indvars.iv
  %6 = trunc i64 %indvars.iv to i32
  br label %7

7:                                                ; preds = %.preheader, %7
  %.018 = phi i32 [ 0, %.preheader ], [ %13, %7 ]
  %8 = phi i32 [ %6, %.preheader ], [ %12, %7 ]
  %9 = lshr i32 %8, 1
  %10 = and i32 %8, 1
  %.not = icmp eq i32 %10, 0
  %11 = select i1 %.not, i32 0, i32 -306674912
  %12 = xor i32 %11, %9
  %13 = add nuw nsw i32 %.018, 1
  %exitcond.not = icmp eq i32 %13, 8
  br i1 %exitcond.not, label %14, label %7, !llvm.loop !24

14:                                               ; preds = %7
  store i32 %12, ptr %5, align 4
  %indvars.iv.next = add nuw nsw i64 %indvars.iv, 1
  %exitcond24.not = icmp eq i64 %indvars.iv.next, 256
  br i1 %exitcond24.not, label %.loopexit, label %.preheader, !llvm.loop !25

.loopexit:                                        ; preds = %14, %2
  %15 = icmp sgt i32 %1, 0
  br i1 %15, label %.lr.ph.preheader, label %._crit_edge

.lr.ph.preheader:                                 ; preds = %.loopexit
  %wide.trip.count = zext nneg i32 %1 to i64
  br label %.lr.ph

.lr.ph:                                           ; preds = %.lr.ph.preheader, %.lr.ph
  %indvars.iv25 = phi i64 [ 0, %.lr.ph.preheader ], [ %indvars.iv.next26, %.lr.ph ]
  %.01720 = phi i32 [ -1, %.lr.ph.preheader ], [ %25, %.lr.ph ]
  %16 = lshr i32 %.01720, 8
  %17 = getelementptr inbounds i8, ptr %0, i64 %indvars.iv25
  %18 = load i8, ptr %17, align 1
  %19 = zext i8 %18 to i32
  %20 = and i32 %.01720, 255
  %21 = xor i32 %20, %19
  %22 = zext nneg i32 %21 to i64
  %23 = getelementptr inbounds [256 x i32], ptr @_ZZ11stbi__crc32PhiE9crc_table, i64 0, i64 %22
  %24 = load i32, ptr %23, align 4
  %25 = xor i32 %24, %16
  %indvars.iv.next26 = add nuw nsw i64 %indvars.iv25, 1
  %exitcond28.not = icmp eq i64 %indvars.iv.next26, %wide.trip.count
  br i1 %exitcond28.not, label %._crit_edge.loopexit, label %.lr.ph, !llvm.loop !26

._crit_edge.loopexit:                             ; preds = %.lr.ph
  %26 = xor i32 %25, -1
  br label %._crit_edge

._crit_edge:                                      ; preds = %._crit_edge.loopexit, %.loopexit
  %.017.lcssa = phi i32 [ 0, %.loopexit ], [ %26, %._crit_edge.loopexit ]
  ret i32 %.017.lcssa
}